; Function Attrs: mustprogress nounwind uwtable
define hidden noundef zeroext i1 @_ZNK13IdealLoopTree17process_safepointEP14PhaseIdealLoopR16Unique_Node_ListS3_P4Node(ptr nocapture noundef nonnull readonly align 8 dereferenceable(113) %0, ptr noundef %1, ptr noundef nonnull align 8 dereferenceable(68) %2, ptr noundef nonnull align 8 dereferenceable(68) %3, ptr noundef readonly %4) local_unnamed_addr #0 align 2 {
  %6 = getelementptr inbounds i8, ptr %0, i64 24
  %7 = load ptr, ptr %6, align 8
  %8 = load ptr, ptr %7, align 8
  %9 = getelementptr inbounds i8, ptr %8, i64 224
  %10 = load ptr, ptr %9, align 8
  %11 = tail call noundef ptr %10(ptr noundef nonnull align 8 dereferenceable(92) %7) #11
  %12 = icmp eq ptr %11, %4
  br i1 %12, label %57, label %13

13:                                               ; preds = %5
  %.not.i.i = icmp eq ptr %4, null
  br i1 %.not.i.i, label %14, label %16

14:                                               ; preds = %13
  %15 = load ptr, ptr @g_assert_poison, align 8
  store i8 88, ptr %15, align 1
  tail call void (ptr, i32, ptr, ptr, ...) @_Z15report_vm_errorPKciS0_S0_z(ptr noundef nonnull @.str.26, i32 noundef 976, ptr noundef nonnull @.str.27, ptr noundef nonnull @.str.28) #10
  unreachable

16:                                               ; preds = %13
  %17 = getelementptr inbounds i8, ptr %4, i64 40
  %18 = load i32, ptr %17, align 8
  %19 = getelementptr inbounds i8, ptr %1, i64 32
  %20 = load i32, ptr %19, align 8
  %21 = icmp ugt i32 %20, %18
  br i1 %21, label %_ZNK14PhaseIdealLoop8has_nodeEPK4Node.exit.i, label %_ZNK14PhaseIdealLoop8has_nodeEPK4Node.exit.thread.i

_ZNK14PhaseIdealLoop8has_nodeEPK4Node.exit.i:     ; preds = %16
  %22 = getelementptr inbounds i8, ptr %1, i64 40
  %23 = load ptr, ptr %22, align 8
  %24 = zext i32 %18 to i64
  %25 = getelementptr inbounds ptr, ptr %23, i64 %24
  %26 = load ptr, ptr %25, align 8
  %.not.i = icmp eq ptr %26, null
  br i1 %.not.i, label %_ZNK14PhaseIdealLoop8has_nodeEPK4Node.exit.thread.i, label %_ZNK14PhaseIdealLoop8get_loopEP4Node.exit

_ZNK14PhaseIdealLoop8has_nodeEPK4Node.exit.thread.i: ; preds = %_ZNK14PhaseIdealLoop8has_nodeEPK4Node.exit.i, %16
  %27 = getelementptr inbounds i8, ptr %1, i64 64
  %28 = load ptr, ptr %27, align 8
  br label %_ZNK14PhaseIdealLoop8get_loopEP4Node.exit

_ZNK14PhaseIdealLoop8get_loopEP4Node.exit:        ; preds = %_ZNK14PhaseIdealLoop8has_nodeEPK4Node.exit.i, %_ZNK14PhaseIdealLoop8has_nodeEPK4Node.exit.thread.i
  %.0.i = phi ptr [ %28, %_ZNK14PhaseIdealLoop8has_nodeEPK4Node.exit.thread.i ], [ %26, %_ZNK14PhaseIdealLoop8has_nodeEPK4Node.exit.i ]
  %29 = getelementptr inbounds i8, ptr %.0.i, i64 24
  %30 = load ptr, ptr %29, align 8
  %31 = getelementptr inbounds i8, ptr %30, i64 44
  %32 = load i32, ptr %31, align 4
  %33 = and i32 %32, 1023
  %34 = icmp eq i32 %33, 608
  br i1 %34, label %35, label %57

35:                                               ; preds = %_ZNK14PhaseIdealLoop8get_loopEP4Node.exit
  %36 = getelementptr inbounds i8, ptr %.0.i, i64 16
  %37 = load ptr, ptr %36, align 8
  %38 = getelementptr inbounds i8, ptr %37, i64 24
  %39 = load ptr, ptr %38, align 8
  %40 = getelementptr inbounds i8, ptr %2, i64 32
  %41 = getelementptr inbounds i8, ptr %39, i64 40
  %42 = load i32, ptr %41, align 8
  %43 = lshr i32 %42, 5
  %44 = load i32, ptr %40, align 8
  %.not.i.i20 = icmp ult i32 %43, %44
  br i1 %.not.i.i20, label %_ZN16Unique_Node_List6memberEP4Node.exit, label %_ZN16Unique_Node_List6memberEP4Node.exit.thread

_ZN16Unique_Node_List6memberEP4Node.exit:         ; preds = %35
  %45 = and i32 %42, 31
  %46 = shl nuw i32 1, %45
  %47 = getelementptr inbounds i8, ptr %2, i64 40
  %48 = load ptr, ptr %47, align 8
  %49 = zext nneg i32 %43 to i64
  %50 = getelementptr inbounds i32, ptr %48, i64 %49
  %51 = load i32, ptr %50, align 4
  %52 = and i32 %51, %46
  %.not = icmp eq i32 %52, 0
  br i1 %.not, label %_ZN16Unique_Node_List6memberEP4Node.exit.thread, label %57

_ZN16Unique_Node_List6memberEP4Node.exit.thread:  ; preds = %35, %_ZN16Unique_Node_List6memberEP4Node.exit
  %53 = tail call noundef zeroext i1 @_ZNK13IdealLoopTree20empty_loop_candidateEP14PhaseIdealLoop(ptr noundef nonnull align 8 dereferenceable(113) %37, ptr noundef nonnull %1)
  br i1 %53, label %54, label %57

54:                                               ; preds = %_ZN16Unique_Node_List6memberEP4Node.exit.thread
  %55 = tail call noundef zeroext i1 @_ZNK13IdealLoopTree37empty_loop_with_extra_nodes_candidateEP14PhaseIdealLoop(ptr noundef nonnull align 8 dereferenceable(113) %37, ptr noundef nonnull %1)
  br i1 %55, label %56, label %57

56:                                               ; preds = %54
  tail call void @_ZNK13IdealLoopTree18enqueue_data_nodesEP14PhaseIdealLoopR16Unique_Node_ListS3_(ptr noundef nonnull align 8 dereferenceable(113) %37, ptr noundef nonnull %1, ptr noundef nonnull align 8 dereferenceable(68) %2, ptr noundef nonnull align 8 dereferenceable(68) %3)
  br label %57

57:                                               ; preds = %_ZN16Unique_Node_List6memberEP4Node.exit.thread, %54, %_ZN16Unique_Node_List6memberEP4Node.exit, %_ZNK14PhaseIdealLoop8get_loopEP4Node.exit, %5, %56
  %.0 = phi i1 [ true, %56 ], [ true, %5 ], [ false, %_ZNK14PhaseIdealLoop8get_loopEP4Node.exit ], [ true, %_ZN16Unique_Node_List6memberEP4Node.exit ], [ false, %54 ], [ false, %_ZN16Unique_Node_List6memberEP4Node.exit.thread ]
  ret i1 %.0
}